; Function Attrs: mustprogress uwtable
define internal fastcc void @_ZL10free_nodes6node_t(ptr captures(none) %0) unnamed_addr #7 {
  %2 = alloca %struct.node_t, align 8
  %3 = getelementptr inbounds nuw i8, ptr %0, i64 8
  %.0.copyload.i = load i32, ptr %3, align 1
  %4 = zext i32 %.0.copyload.i to i64
  %.not = icmp eq i32 %.0.copyload.i, 0
  br i1 %.not, label %._crit_edge, label %.lr.ph

.lr.ph:                                           ; preds = %1
  %5 = getelementptr inbounds nuw i8, ptr %0, i64 12
  %6 = getelementptr inbounds nuw i8, ptr %0, i64 4
  br label %7

._crit_edge:                                      ; preds = %_ZN6node_t7node_atEm.exit, %1
  call void @free(ptr noundef nonnull %0) #27
  ret void

7:                                                ; preds = %.lr.ph, %_ZN6node_t7node_atEm.exit
  %.07 = phi i64 [ 0, %.lr.ph ], [ %20, %_ZN6node_t7node_atEm.exit ]
  call void @llvm.lifetime.start.p0(i64 8, ptr nonnull %2)
  %.0.copyload.i.i = load i32, ptr %3, align 1
  %8 = zext i32 %.0.copyload.i.i to i64
  %.not.i = icmp samesign ult i64 %.07, %8
  br i1 %.not.i, label %_ZN6node_t7node_atEm.exit, label %9, !prof !9

9:                                                ; preds = %7
  %10 = load ptr, ptr @stderr, align 8, !tbaa !10
  %11 = call i32 (ptr, ptr, ...) @fprintf(ptr noundef %10, ptr noundef nonnull @.str, ptr noundef nonnull @.str.1, ptr noundef nonnull @.str.2, i32 noundef 97) #23
  %12 = load ptr, ptr @stderr, align 8, !tbaa !10
  %13 = call i32 @fflush(ptr noundef %12)
  call void @_ZN3zmq9zmq_abortEPKc(ptr noundef nonnull @.str.1)
  %.0.copyload.i1.i.pre.i = load i32, ptr %3, align 1
  %.pre4.i = zext i32 %.0.copyload.i1.i.pre.i to i64
  br label %_ZN6node_t7node_atEm.exit

_ZN6node_t7node_atEm.exit:                        ; preds = %7, %9
  %.pre-phi.i = phi i64 [ %8, %7 ], [ %.pre4.i, %9 ]
  %.0.copyload.i.i.i = load i32, ptr %6, align 1
  %14 = zext i32 %.0.copyload.i.i.i to i64
  %15 = getelementptr inbounds nuw i8, ptr %5, i64 %14
  %16 = getelementptr inbounds nuw i8, ptr %15, i64 %.pre-phi.i
  %17 = shl i64 %.07, 3
  %18 = getelementptr inbounds nuw i8, ptr %16, i64 %17
  %.0.copyload.i4 = load ptr, ptr %18, align 1
  call void @_ZN6node_tC1EPh(ptr noundef nonnull align 8 dereferenceable(8) %2, ptr noundef %.0.copyload.i4)
  %19 = load ptr, ptr %2, align 8
  call void @llvm.lifetime.end.p0(i64 8, ptr nonnull %2)
  call fastcc void @_ZL10free_nodes6node_t(ptr %19)
  %20 = add nuw nsw i64 %.07, 1
  %exitcond.not = icmp eq i64 %20, %4
  br i1 %exitcond.not, label %._crit_edge, label %7, !llvm.loop !18
}